; Function Attrs: mustprogress nofree nounwind null_pointer_is_valid sspstrong willreturn memory(write, inaccessiblemem: readwrite) uwtable
define hidden range(i32 0, 2) i32 @Dtd_Parse_lex_init_extra(ptr noundef %0, ptr noundef writeonly captures(address_is_null) %1) local_unnamed_addr #13 {
  %3 = icmp eq ptr %1, null
  br i1 %3, label %4, label %6

4:                                                ; preds = %2
  %5 = tail call ptr @__errno_location() #29
  store i32 22, ptr %5, align 4
  br label %11

6:                                                ; preds = %2
  %calloc = tail call dereferenceable_or_null(144) ptr @calloc(i64 1, i64 144)
  store ptr %calloc, ptr %1, align 8
  %7 = icmp eq ptr %calloc, null
  br i1 %7, label %8, label %10

8:                                                ; preds = %6
  %9 = tail call ptr @__errno_location() #29
  store i32 12, ptr %9, align 4
  br label %11

10:                                               ; preds = %6
  store ptr %0, ptr %calloc, align 8
  br label %11

11:                                               ; preds = %10, %8, %4
  %.0 = phi i32 [ 1, %4 ], [ 1, %8 ], [ 0, %10 ]
  ret i32 %.0
}